; Function Attrs: mustprogress uwtable
define void @_Z25ImFontAtlasBuildSetupFontP11ImFontAtlasP6ImFontP12ImFontConfigff(ptr noundef %0, ptr noundef captures(none) %1, ptr noundef readonly captures(none) %2, float noundef %3, float noundef %4) local_unnamed_addr #12 {
  %6 = getelementptr inbounds nuw i8, ptr %2, i64 13
  %7 = load i8, ptr %6, align 1, !tbaa !286, !range !265, !noundef !266
  %8 = trunc nuw i8 %7 to i1
  br i1 %8, label %35, label %9

9:                                                ; preds = %5
  %10 = getelementptr inbounds nuw i8, ptr %1, i64 20
  store float 0.000000e+00, ptr %10, align 4, !tbaa !149
  %11 = getelementptr inbounds nuw i8, ptr %1, i64 16
  store float 0.000000e+00, ptr %11, align 8, !tbaa !507
  %12 = getelementptr inbounds nuw i8, ptr %1, i64 48
  %13 = load ptr, ptr %12, align 8, !tbaa !508
  %.not.i.i = icmp eq ptr %13, null
  br i1 %.not.i.i, label %_ZN8ImVectorI11ImFontGlyphE5clearEv.exit.i, label %14

14:                                               ; preds = %9
  %15 = getelementptr inbounds nuw i8, ptr %1, i64 40
  %16 = getelementptr inbounds nuw i8, ptr %1, i64 44
  store i32 0, ptr %16, align 4, !tbaa !509
  store i32 0, ptr %15, align 8, !tbaa !510
  tail call void @_ZN5ImGui7MemFreeEPv(ptr noundef nonnull %13)
  store ptr null, ptr %12, align 8, !tbaa !508
  br label %_ZN8ImVectorI11ImFontGlyphE5clearEv.exit.i

_ZN8ImVectorI11ImFontGlyphE5clearEv.exit.i:       ; preds = %14, %9
  %17 = getelementptr inbounds nuw i8, ptr %1, i64 8
  %18 = load ptr, ptr %17, align 8, !tbaa !511
  %.not.i1.i = icmp eq ptr %18, null
  br i1 %.not.i1.i, label %_ZN8ImVectorIfE5clearEv.exit.i, label %19

19:                                               ; preds = %_ZN8ImVectorI11ImFontGlyphE5clearEv.exit.i
  %20 = getelementptr inbounds nuw i8, ptr %1, i64 4
  store i32 0, ptr %20, align 4, !tbaa !512
  store i32 0, ptr %1, align 8, !tbaa !513
  tail call void @_ZN5ImGui7MemFreeEPv(ptr noundef nonnull %18)
  store ptr null, ptr %17, align 8, !tbaa !511
  br label %_ZN8ImVectorIfE5clearEv.exit.i

_ZN8ImVectorIfE5clearEv.exit.i:                   ; preds = %19, %_ZN8ImVectorI11ImFontGlyphE5clearEv.exit.i
  %21 = getelementptr inbounds nuw i8, ptr %1, i64 32
  %22 = load ptr, ptr %21, align 8, !tbaa !50
  %.not.i2.i = icmp eq ptr %22, null
  br i1 %.not.i2.i, label %_ZN6ImFont15ClearOutputDataEv.exit, label %23

23:                                               ; preds = %_ZN8ImVectorIfE5clearEv.exit.i
  %24 = getelementptr inbounds nuw i8, ptr %1, i64 24
  %25 = getelementptr inbounds nuw i8, ptr %1, i64 28
  store i32 0, ptr %25, align 4, !tbaa !54
  store i32 0, ptr %24, align 8, !tbaa !55
  tail call void @_ZN5ImGui7MemFreeEPv(ptr noundef nonnull %22)
  store ptr null, ptr %21, align 8, !tbaa !50
  br label %_ZN6ImFont15ClearOutputDataEv.exit

_ZN6ImFont15ClearOutputDataEv.exit:               ; preds = %_ZN8ImVectorIfE5clearEv.exit.i, %23
  %26 = getelementptr inbounds nuw i8, ptr %1, i64 56
  %27 = getelementptr inbounds nuw i8, ptr %1, i64 112
  tail call void @llvm.memset.p0.i64(ptr noundef nonnull align 8 dereferenceable(16) %26, i8 0, i64 16, i1 false)
  store i8 1, ptr %27, align 8, !tbaa !514
  %28 = getelementptr inbounds nuw i8, ptr %1, i64 104
  %29 = getelementptr inbounds nuw i8, ptr %1, i64 100
  %30 = getelementptr inbounds nuw i8, ptr %1, i64 108
  store i32 0, ptr %30, align 4, !tbaa !515
  %31 = getelementptr inbounds nuw i8, ptr %1, i64 113
  store i8 0, ptr %31, align 1
  %32 = getelementptr inbounds nuw i8, ptr %2, i64 28
  %33 = load float, ptr %32, align 4, !tbaa !275
  store float %33, ptr %10, align 4, !tbaa !149
  %34 = getelementptr inbounds nuw i8, ptr %1, i64 64
  store ptr %0, ptr %34, align 8, !tbaa !516
  store float %3, ptr %29, align 4, !tbaa !506
  store float %4, ptr %28, align 8, !tbaa !517
  br label %35

35:                                               ; preds = %_ZN6ImFont15ClearOutputDataEv.exit, %5
  ret void
}